target datalayout = "e-m:e-p270:32:32-p271:32:32-p272:64:64-i64:64-i128:128-f80:128-n8:16:32:64-S128"
target triple = "x86_64-pc-linux-gnu"

%struct.Abc_Frame_t_ = type { ptr, ptr, ptr, ptr, ptr, ptr, ptr, ptr, ptr, ptr, i32, i32, i32, i32, i32, ptr, float, float, i32, i32, ptr, ptr, ptr, double, double, ptr, ptr, ptr, ptr, ptr, ptr, ptr, ptr, ptr, ptr, ptr, ptr, float, ptr, i32, ptr, ptr, ptr, ptr, ptr, i32, i32, i32, i32, i32, i32, ptr, ptr, ptr, ptr, ptr, ptr, i32, i32, ptr, ptr, ptr, ptr, ptr, ptr, ptr, ptr, ptr, ptr, ptr, ptr, ptr, ptr, ptr, ptr, ptr, ptr, ptr, ptr, ptr, ptr, ptr, ptr, ptr, ptr, ptr, ptr, ptr, ptr }
%struct.Abc_Ntk_t_ = type { i32, i32, ptr, ptr, ptr, ptr, ptr, ptr, ptr, ptr, ptr, ptr, ptr, [11 x i32], i32, i32, i32, i32, ptr, i32, ptr, ptr, i32, i32, i32, double, i32, %struct.Vec_Int_t_, ptr, ptr, ptr, ptr, ptr, float, i32, ptr, ptr, ptr, ptr, ptr, ptr, ptr, ptr, ptr, ptr, ptr, ptr, ptr, ptr, ptr, ptr, ptr, ptr, ptr, ptr, ptr, ptr }
%struct.Vec_Int_t_ = type { i32, i32, ptr }

@.str.51 = private unnamed_addr constant [2 x i8] c"r\00", align 1
@globalUtilOptind = external global i32, align 4
@.str.118 = private unnamed_addr constant [38 x i8] c"\09-h     : prints the command summary\0A\00", align 1
@.str.119 = private unnamed_addr constant [38 x i8] c"\09file   : the name of a file to read\0A\00", align 1
@.str.141 = private unnamed_addr constant [31 x i8] c"Cannot open input file \22%s\22. \0A\00", align 1
@.str.165 = private unnamed_addr constant [2 x i8] c"h\00", align 1
@.str.224 = private unnamed_addr constant [15 x i8] c"_temp_rom_.pla\00", align 1
@.str.225 = private unnamed_addr constant [29 x i8] c"usage: read_rom [-h] <file>\0A\00", align 1
@.str.226 = private unnamed_addr constant [26 x i8] c"\09         reads ROM file\0A\00", align 1

; Function Attrs: inlinehint nounwind uwtable
define internal ptr @Abc_UtilStrsav(ptr noundef %0) #3 {
  %2 = alloca ptr, align 8
  store ptr %0, ptr %2, align 8, !tbaa !14
  %3 = load ptr, ptr %2, align 8, !tbaa !14
  %4 = icmp ne ptr %3, null
  br i1 %4, label %5, label %13

5:                                                ; preds = %1
  %6 = load ptr, ptr %2, align 8, !tbaa !14
  %7 = call i64 @strlen(ptr noundef %6) #12
  %8 = add i64 %7, 1
  %9 = mul i64 1, %8
  %10 = call noalias ptr @malloc(i64 noundef %9) #13
  %11 = load ptr, ptr %2, align 8, !tbaa !14
  %12 = call ptr @strcpy(ptr noundef %10, ptr noundef %11) #11
  br label %14

13:                                               ; preds = %1
  br label %14

14:                                               ; preds = %13, %5
  %15 = phi ptr [ %12, %5 ], [ null, %13 ]
  ret ptr %15
}

; Function Attrs: nounwind uwtable
define internal i32 @IoCommandReadRom(ptr noundef %0, i32 noundef %1, ptr noundef %2) #0 {
  %4 = alloca i32, align 4
  %5 = alloca ptr, align 8
  %6 = alloca i32, align 4
  %7 = alloca ptr, align 8
  %8 = alloca ptr, align 8
  %9 = alloca ptr, align 8
  %10 = alloca ptr, align 8
  %11 = alloca ptr, align 8
  %12 = alloca i32, align 4
  %13 = alloca i32, align 4
  store ptr %0, ptr %5, align 8, !tbaa !3
  store i32 %1, ptr %6, align 4, !tbaa !8
  store ptr %2, ptr %7, align 8, !tbaa !10
  call void @llvm.lifetime.start.p0(i64 8, ptr %8) #11
  call void @llvm.lifetime.start.p0(i64 8, ptr %9) #11
  call void @llvm.lifetime.start.p0(i64 8, ptr %10) #11
  call void @llvm.lifetime.start.p0(i64 8, ptr %11) #11
  store ptr @.str.224, ptr %11, align 8, !tbaa !14
  call void @llvm.lifetime.start.p0(i64 4, ptr %12) #11
  call void (...) @Extra_UtilGetoptReset()
  br label %14

14:                                               ; preds = %3
  %15 = load i32, ptr %6, align 4, !tbaa !8
  %16 = load ptr, ptr %7, align 8, !tbaa !10
  %17 = call i32 @Extra_UtilGetopt(i32 noundef %15, ptr noundef %16, ptr noundef @.str.165)
  store i32 %17, ptr %12, align 4, !tbaa !8
  %18 = icmp ne i32 %17, -1
  br i1 %18, label %19, label %23

19:                                               ; preds = %14
  %20 = load i32, ptr %12, align 4, !tbaa !8
  switch i32 %20, label %22 [
    i32 104, label %21
  ]

21:                                               ; preds = %19
  br label %90

22:                                               ; preds = %19
  br label %90

23:                                               ; preds = %14
  %24 = load i32, ptr %6, align 4, !tbaa !8
  %25 = load i32, ptr @globalUtilOptind, align 4, !tbaa !8
  %26 = add nsw i32 %25, 1
  %27 = icmp ne i32 %24, %26
  br i1 %27, label %28, label %29

28:                                               ; preds = %23
  br label %90

29:                                               ; preds = %23
  %30 = load ptr, ptr %7, align 8, !tbaa !10
  %31 = load i32, ptr @globalUtilOptind, align 4, !tbaa !8
  %32 = sext i32 %31 to i64
  %33 = getelementptr inbounds ptr, ptr %30, i64 %32
  %34 = load ptr, ptr %33, align 8, !tbaa !14
  store ptr %34, ptr %10, align 8, !tbaa !14
  %35 = load ptr, ptr %10, align 8, !tbaa !14
  %36 = call noalias ptr @fopen(ptr noundef %35, ptr noundef @.str.51)
  store ptr %36, ptr %9, align 8, !tbaa !22
  %37 = icmp eq ptr %36, null
  br i1 %37, label %38, label %44

38:                                               ; preds = %29
  %39 = load ptr, ptr %5, align 8, !tbaa !3
  %40 = getelementptr inbounds nuw %struct.Abc_Frame_t_, ptr %39, i32 0, i32 21
  %41 = load ptr, ptr %40, align 8, !tbaa !24
  %42 = load ptr, ptr %10, align 8, !tbaa !14
  %43 = call i32 (ptr, ptr, ...) @fprintf(ptr noundef %41, ptr noundef @.str.141, ptr noundef %42) #11
  store i32 1, ptr %4, align 4
  store i32 1, ptr %13, align 4
  br label %107

44:                                               ; preds = %29
  %45 = load ptr, ptr %9, align 8, !tbaa !22
  %46 = call i32 @fclose(ptr noundef %45)
  %47 = load ptr, ptr %10, align 8, !tbaa !14
  %48 = load ptr, ptr %11, align 8, !tbaa !14
  call void @Io_TransformROM2PLA(ptr noundef %47, ptr noundef %48)
  %49 = load ptr, ptr %11, align 8, !tbaa !14
  %50 = call ptr @Io_Read(ptr noundef %49, i32 noundef 15, i32 noundef 1, i32 noundef 0)
  store ptr %50, ptr %8, align 8, !tbaa !18
  %51 = load ptr, ptr %8, align 8, !tbaa !18
  %52 = icmp eq ptr %51, null
  br i1 %52, label %53, label %54

53:                                               ; preds = %44
  store i32 1, ptr %4, align 4
  store i32 1, ptr %13, align 4
  br label %107

54:                                               ; preds = %44
  %55 = load ptr, ptr %8, align 8, !tbaa !18
  %56 = getelementptr inbounds nuw %struct.Abc_Ntk_t_, ptr %55, i32 0, i32 2
  %57 = load ptr, ptr %56, align 8, !tbaa !73
  %58 = icmp ne ptr %57, null
  br i1 %58, label %59, label %65

59:                                               ; preds = %54
  %60 = load ptr, ptr %8, align 8, !tbaa !18
  %61 = getelementptr inbounds nuw %struct.Abc_Ntk_t_, ptr %60, i32 0, i32 2
  %62 = load ptr, ptr %61, align 8, !tbaa !73
  call void @free(ptr noundef %62) #11
  %63 = load ptr, ptr %8, align 8, !tbaa !18
  %64 = getelementptr inbounds nuw %struct.Abc_Ntk_t_, ptr %63, i32 0, i32 2
  store ptr null, ptr %64, align 8, !tbaa !73
  br label %66

65:                                               ; preds = %54
  br label %66

66:                                               ; preds = %65, %59
  %67 = load ptr, ptr %10, align 8, !tbaa !14
  %68 = call ptr @Extra_FileNameGeneric(ptr noundef %67)
  %69 = load ptr, ptr %8, align 8, !tbaa !18
  %70 = getelementptr inbounds nuw %struct.Abc_Ntk_t_, ptr %69, i32 0, i32 2
  store ptr %68, ptr %70, align 8, !tbaa !73
  %71 = load ptr, ptr %8, align 8, !tbaa !18
  %72 = getelementptr inbounds nuw %struct.Abc_Ntk_t_, ptr %71, i32 0, i32 3
  %73 = load ptr, ptr %72, align 8, !tbaa !64
  %74 = icmp ne ptr %73, null
  br i1 %74, label %75, label %81

75:                                               ; preds = %66
  %76 = load ptr, ptr %8, align 8, !tbaa !18
  %77 = getelementptr inbounds nuw %struct.Abc_Ntk_t_, ptr %76, i32 0, i32 3
  %78 = load ptr, ptr %77, align 8, !tbaa !64
  call void @free(ptr noundef %78) #11
  %79 = load ptr, ptr %8, align 8, !tbaa !18
  %80 = getelementptr inbounds nuw %struct.Abc_Ntk_t_, ptr %79, i32 0, i32 3
  store ptr null, ptr %80, align 8, !tbaa !64
  br label %82

81:                                               ; preds = %66
  br label %82

82:                                               ; preds = %81, %75
  %83 = load ptr, ptr %10, align 8, !tbaa !14
  %84 = call ptr @Abc_UtilStrsav(ptr noundef %83)
  %85 = load ptr, ptr %8, align 8, !tbaa !18
  %86 = getelementptr inbounds nuw %struct.Abc_Ntk_t_, ptr %85, i32 0, i32 3
  store ptr %84, ptr %86, align 8, !tbaa !64
  %87 = load ptr, ptr %5, align 8, !tbaa !3
  %88 = load ptr, ptr %8, align 8, !tbaa !18
  call void @Abc_FrameReplaceCurrentNetwork(ptr noundef %87, ptr noundef %88)
  %89 = load ptr, ptr %5, align 8, !tbaa !3
  call void @Abc_FrameClearVerifStatus(ptr noundef %89)
  store i32 0, ptr %4, align 4
  store i32 1, ptr %13, align 4
  br label %107

90:                                               ; preds = %28, %22, %21
  %91 = load ptr, ptr %5, align 8, !tbaa !3
  %92 = getelementptr inbounds nuw %struct.Abc_Frame_t_, ptr %91, i32 0, i32 21
  %93 = load ptr, ptr %92, align 8, !tbaa !24
  %94 = call i32 (ptr, ptr, ...) @fprintf(ptr noundef %93, ptr noundef @.str.225) #11
  %95 = load ptr, ptr %5, align 8, !tbaa !3
  %96 = getelementptr inbounds nuw %struct.Abc_Frame_t_, ptr %95, i32 0, i32 21
  %97 = load ptr, ptr %96, align 8, !tbaa !24
  %98 = call i32 (ptr, ptr, ...) @fprintf(ptr noundef %97, ptr noundef @.str.226) #11
  %99 = load ptr, ptr %5, align 8, !tbaa !3
  %100 = getelementptr inbounds nuw %struct.Abc_Frame_t_, ptr %99, i32 0, i32 21
  %101 = load ptr, ptr %100, align 8, !tbaa !24
  %102 = call i32 (ptr, ptr, ...) @fprintf(ptr noundef %101, ptr noundef @.str.118) #11
  %103 = load ptr, ptr %5, align 8, !tbaa !3
  %104 = getelementptr inbounds nuw %struct.Abc_Frame_t_, ptr %103, i32 0, i32 21
  %105 = load ptr, ptr %104, align 8, !tbaa !24
  %106 = call i32 (ptr, ptr, ...) @fprintf(ptr noundef %105, ptr noundef @.str.119) #11
  store i32 1, ptr %4, align 4
  store i32 1, ptr %13, align 4
  br label %107

107:                                              ; preds = %90, %82, %53, %38
  call void @llvm.lifetime.end.p0(i64 4, ptr %12) #11
  call void @llvm.lifetime.end.p0(i64 8, ptr %11) #11
  call void @llvm.lifetime.end.p0(i64 8, ptr %10) #11
  call void @llvm.lifetime.end.p0(i64 8, ptr %9) #11
  call void @llvm.lifetime.end.p0(i64 8, ptr %8) #11
  %108 = load i32, ptr %4, align 4
  ret i32 %108
}