; Function Attrs: nounwind uwtable
define internal range(i32 0, 2) i32 @IoCommandReadRom(ptr noundef %0, i32 noundef %1, ptr noundef %2) #0 {
  tail call void (...) @Extra_UtilGetoptReset() #18
  %4 = tail call i32 @Extra_UtilGetopt(i32 noundef %1, ptr noundef %2, ptr noundef nonnull @.str.165) #18
  %.not = icmp eq i32 %4, -1
  br i1 %.not, label %5, label %38

5:                                                ; preds = %3
  %6 = load i32, ptr @globalUtilOptind, align 4, !tbaa !3
  %7 = add nsw i32 %6, 1
  %.not33 = icmp eq i32 %1, %7
  br i1 %.not33, label %8, label %38

8:                                                ; preds = %5
  %9 = sext i32 %6 to i64
  %10 = getelementptr inbounds ptr, ptr %2, i64 %9
  %11 = load ptr, ptr %10, align 8, !tbaa !9
  %12 = tail call noalias ptr @fopen(ptr noundef %11, ptr noundef nonnull @.str.51)
  %13 = icmp eq ptr %12, null
  br i1 %13, label %14, label %18

14:                                               ; preds = %8
  %15 = getelementptr inbounds nuw i8, ptr %0, i64 136
  %16 = load ptr, ptr %15, align 8, !tbaa !34
  %17 = tail call i32 (ptr, ptr, ...) @fprintf(ptr noundef %16, ptr noundef nonnull @.str.141, ptr noundef %11) #18
  br label %48

18:                                               ; preds = %8
  %19 = tail call i32 @fclose(ptr noundef nonnull %12)
  tail call void @Io_TransformROM2PLA(ptr noundef %11, ptr noundef nonnull @.str.224) #18
  %20 = tail call ptr @Io_Read(ptr noundef nonnull @.str.224, i32 noundef 15, i32 noundef 1, i32 noundef 0) #18
  %21 = icmp eq ptr %20, null
  br i1 %21, label %48, label %22

22:                                               ; preds = %18
  %23 = getelementptr inbounds nuw i8, ptr %20, i64 8
  %24 = load ptr, ptr %23, align 8, !tbaa !71
  %.not34 = icmp eq ptr %24, null
  br i1 %.not34, label %26, label %25

25:                                               ; preds = %22
  tail call void @free(ptr noundef nonnull %24) #18
  store ptr null, ptr %23, align 8, !tbaa !71
  br label %26

26:                                               ; preds = %22, %25
  %27 = tail call ptr @Extra_FileNameGeneric(ptr noundef %11) #18
  store ptr %27, ptr %23, align 8, !tbaa !71
  %28 = getelementptr inbounds nuw i8, ptr %20, i64 16
  %29 = load ptr, ptr %28, align 8, !tbaa !61
  %.not35 = icmp eq ptr %29, null
  br i1 %.not35, label %31, label %30

30:                                               ; preds = %26
  tail call void @free(ptr noundef nonnull %29) #18
  store ptr null, ptr %28, align 8, !tbaa !61
  br label %31

31:                                               ; preds = %26, %30
  %.not.i = icmp eq ptr %11, null
  br i1 %.not.i, label %Abc_UtilStrsav.exit, label %32

32:                                               ; preds = %31
  %33 = tail call i64 @strlen(ptr noundef nonnull readonly dereferenceable(1) %11) #19
  %34 = add i64 %33, 1
  %35 = tail call noalias ptr @malloc(i64 noundef %34) #20
  %36 = tail call ptr @strcpy(ptr noundef nonnull dereferenceable(1) %35, ptr noundef nonnull readonly dereferenceable(1) %11) #18
  br label %Abc_UtilStrsav.exit

Abc_UtilStrsav.exit:                              ; preds = %31, %32
  %37 = phi ptr [ %35, %32 ], [ null, %31 ]
  store ptr %37, ptr %28, align 8, !tbaa !61
  tail call void @Abc_FrameReplaceCurrentNetwork(ptr noundef %0, ptr noundef nonnull %20) #18
  tail call void @Abc_FrameClearVerifStatus(ptr noundef %0) #18
  br label %48

38:                                               ; preds = %5, %3
  %39 = getelementptr inbounds nuw i8, ptr %0, i64 136
  %40 = load ptr, ptr %39, align 8, !tbaa !34
  %41 = tail call i64 @fwrite(ptr nonnull @.str.225, i64 28, i64 1, ptr %40)
  %42 = load ptr, ptr %39, align 8, !tbaa !34
  %43 = tail call i64 @fwrite(ptr nonnull @.str.226, i64 25, i64 1, ptr %42)
  %44 = load ptr, ptr %39, align 8, !tbaa !34
  %45 = tail call i64 @fwrite(ptr nonnull @.str.118, i64 37, i64 1, ptr %44)
  %46 = load ptr, ptr %39, align 8, !tbaa !34
  %47 = tail call i64 @fwrite(ptr nonnull @.str.119, i64 37, i64 1, ptr %46)
  br label %48

48:                                               ; preds = %18, %38, %Abc_UtilStrsav.exit, %14
  %.0 = phi i32 [ 1, %38 ], [ 1, %14 ], [ 0, %Abc_UtilStrsav.exit ], [ 1, %18 ]
  ret i32 %.0
}